; Function Attrs: nounwind uwtable
define void @Saig_ManReportUselessRegisters(ptr noundef %0) local_unnamed_addr #0 {
  tail call void @Aig_ManSetCioIds(ptr noundef %0) #4
  %2 = getelementptr i8, ptr %0, i64 112
  %.val = load i32, ptr %2, align 8, !tbaa !3
  %3 = icmp sgt i32 %.val, 0
  br i1 %3, label %.lr.ph, label %.critedge.preheader

.lr.ph:                                           ; preds = %1
  %4 = getelementptr inbounds nuw i8, ptr %0, i64 24
  %5 = load ptr, ptr %4, align 8, !tbaa !21
  %6 = getelementptr i8, ptr %5, i64 8
  %.val38 = load ptr, ptr %6, align 8, !tbaa !22
  %7 = getelementptr i8, ptr %0, i64 108
  %wide.trip.count = zext nneg i32 %.val to i64
  br label %15

.critedge.preheader:                              ; preds = %Saig_ObjIsLo.exit.thread, %1
  %.029.lcssa = phi i32 [ 0, %1 ], [ %.130, %Saig_ObjIsLo.exit.thread ]
  %8 = getelementptr i8, ptr %0, i64 104
  %.val44 = load i32, ptr %8, align 8, !tbaa !24
  %9 = icmp sgt i32 %.val44, 0
  br i1 %9, label %.lr.ph62, label %.critedge2

.lr.ph62:                                         ; preds = %.critedge.preheader
  %10 = getelementptr inbounds nuw i8, ptr %0, i64 24
  %11 = load ptr, ptr %10, align 8, !tbaa !21
  %12 = getelementptr i8, ptr %11, i64 8
  %.val39 = load ptr, ptr %12, align 8, !tbaa !22
  %13 = getelementptr i8, ptr %0, i64 108
  %14 = sext i32 %.val to i64
  %wide.trip.count69 = zext nneg i32 %.val44 to i64
  %invariant.gep = getelementptr ptr, ptr %.val39, i64 %14
  br label %27

15:                                               ; preds = %.lr.ph, %Saig_ObjIsLo.exit.thread
  %indvars.iv = phi i64 [ 0, %.lr.ph ], [ %indvars.iv.next, %Saig_ObjIsLo.exit.thread ]
  %.02958 = phi i32 [ 0, %.lr.ph ], [ %.130, %Saig_ObjIsLo.exit.thread ]
  %16 = getelementptr inbounds nuw ptr, ptr %.val38, i64 %indvars.iv
  %17 = load ptr, ptr %16, align 8, !tbaa !25
  %18 = getelementptr i8, ptr %17, i64 8
  %.val40 = load ptr, ptr %18, align 8, !tbaa !26
  %19 = ptrtoint ptr %.val40 to i64
  %20 = and i64 %19, -2
  %21 = inttoptr i64 %20 to ptr
  %22 = getelementptr i8, ptr %21, i64 24
  %.val.i = load i64, ptr %22, align 8
  %23 = and i64 %.val.i, 7
  %.not.i = icmp eq i64 %23, 2
  br i1 %.not.i, label %Saig_ObjIsLo.exit, label %Saig_ObjIsLo.exit.thread

Saig_ObjIsLo.exit:                                ; preds = %15
  %.val3.i = load i32, ptr %21, align 8, !tbaa !27
  %.val4.i = load i32, ptr %7, align 4, !tbaa !28
  %.not55 = icmp slt i32 %.val3.i, %.val4.i
  br i1 %.not55, label %Saig_ObjIsLo.exit.thread, label %24

24:                                               ; preds = %Saig_ObjIsLo.exit
  %.mask56 = and i64 %.val.i, 4294967232
  %25 = icmp eq i64 %.mask56, 64
  %26 = zext i1 %25 to i32
  %spec.select = add nsw i32 %.02958, %26
  br label %Saig_ObjIsLo.exit.thread

Saig_ObjIsLo.exit.thread:                         ; preds = %15, %24, %Saig_ObjIsLo.exit
  %.130 = phi i32 [ %.02958, %Saig_ObjIsLo.exit ], [ %spec.select, %24 ], [ %.02958, %15 ]
  %indvars.iv.next = add nuw nsw i64 %indvars.iv, 1
  %exitcond.not = icmp eq i64 %indvars.iv.next, %wide.trip.count
  br i1 %exitcond.not, label %.critedge.preheader, label %15, !llvm.loop !29

27:                                               ; preds = %.lr.ph62, %Saig_ObjIsPi.exit.thread
  %indvars.iv66 = phi i64 [ 0, %.lr.ph62 ], [ %indvars.iv.next67, %Saig_ObjIsPi.exit.thread ]
  %.061 = phi i32 [ 0, %.lr.ph62 ], [ %.1, %Saig_ObjIsPi.exit.thread ]
  %gep = getelementptr ptr, ptr %invariant.gep, i64 %indvars.iv66
  %28 = load ptr, ptr %gep, align 8, !tbaa !25
  %29 = getelementptr i8, ptr %28, i64 8
  %.val41 = load ptr, ptr %29, align 8, !tbaa !26
  %30 = ptrtoint ptr %.val41 to i64
  %31 = and i64 %30, -2
  %32 = inttoptr i64 %31 to ptr
  %33 = getelementptr i8, ptr %32, i64 24
  %.val.i47 = load i64, ptr %33, align 8
  %34 = and i64 %.val.i47, 7
  %.not.i48 = icmp eq i64 %34, 2
  br i1 %.not.i48, label %Saig_ObjIsPi.exit, label %Saig_ObjIsPi.exit.thread

Saig_ObjIsPi.exit:                                ; preds = %27
  %.val3.i49 = load i32, ptr %32, align 8, !tbaa !27
  %.val4.i50 = load i32, ptr %13, align 4, !tbaa !28
  %.not53 = icmp slt i32 %.val3.i49, %.val4.i50
  br i1 %.not53, label %35, label %Saig_ObjIsPi.exit.thread

35:                                               ; preds = %Saig_ObjIsPi.exit
  %.mask54 = and i64 %.val.i47, 4294967232
  %36 = icmp eq i64 %.mask54, 64
  %37 = zext i1 %36 to i32
  %spec.select36 = add nsw i32 %.061, %37
  br label %Saig_ObjIsPi.exit.thread

Saig_ObjIsPi.exit.thread:                         ; preds = %27, %35, %Saig_ObjIsPi.exit
  %.1 = phi i32 [ %.061, %Saig_ObjIsPi.exit ], [ %spec.select36, %35 ], [ %.061, %27 ]
  %indvars.iv.next67 = add nuw nsw i64 %indvars.iv66, 1
  %exitcond70.not = icmp eq i64 %indvars.iv.next67, %wide.trip.count69
  br i1 %exitcond70.not, label %.critedge2, label %27, !llvm.loop !31

.critedge2:                                       ; preds = %Saig_ObjIsPi.exit.thread, %.critedge.preheader
  %.0.lcssa = phi i32 [ 0, %.critedge.preheader ], [ %.1, %Saig_ObjIsPi.exit.thread ]
  %.not = icmp eq i32 %.029.lcssa, 0
  br i1 %.not, label %40, label %38

38:                                               ; preds = %.critedge2
  %39 = tail call i32 (ptr, ...) @printf(ptr noundef nonnull dereferenceable(1) @.str, i32 noundef %.029.lcssa, i32 noundef %.val44)
  br label %40

40:                                               ; preds = %38, %.critedge2
  %.not33 = icmp eq i32 %.0.lcssa, 0
  br i1 %.not33, label %43, label %41

41:                                               ; preds = %40
  %.val46 = load i32, ptr %8, align 8, !tbaa !24
  %42 = tail call i32 (ptr, ...) @printf(ptr noundef nonnull dereferenceable(1) @.str.1, i32 noundef %.0.lcssa, i32 noundef %.val46)
  br label %43

43:                                               ; preds = %41, %40
  ret void
}